; Function Attrs: mustprogress nofree norecurse nosync nounwind willreturn memory(none) uwtable
define dso_local noundef zeroext i1 @_ZN11StringUtils8is_spaceEc(i8 noundef signext %0) local_unnamed_addr #4 align 2 {
switch.edge:
  %1 = icmp ult i8 %0, 33
  %switch.cast = zext nneg i8 %0 to i33
  %switch.downshift = lshr i33 -4294965760, %switch.cast
  %switch.masked = trunc i33 %switch.downshift to i1
  %2 = select i1 %1, i1 %switch.masked, i1 false
  ret i1 %2
}